target datalayout = "e-m:e-p270:32:32-p271:32:32-p272:64:64-i64:64-i128:128-f80:128-n8:16:32:64-S128"
target triple = "x86_64-pc-linux-gnu"

; Function Attrs: mustprogress uwtable
define dso_local noundef zeroext i1 @_ZN5ImGui5ComboEPKcPiS1_i(ptr noundef %0, ptr noundef %1, ptr noundef %2, i32 noundef %3) #8 {
  %5 = alloca ptr, align 8
  %6 = alloca ptr, align 8
  %7 = alloca ptr, align 8
  %8 = alloca i32, align 4
  %9 = alloca i32, align 4
  %10 = alloca ptr, align 8
  %11 = alloca i8, align 1
  store ptr %0, ptr %5, align 8, !tbaa !4
  store ptr %1, ptr %6, align 8, !tbaa !258
  store ptr %2, ptr %7, align 8, !tbaa !4
  store i32 %3, ptr %8, align 4, !tbaa !9
  call void @llvm.lifetime.start.p0(i64 4, ptr %9) #17
  store i32 0, ptr %9, align 4, !tbaa !9
  call void @llvm.lifetime.start.p0(i64 8, ptr %10) #17
  %12 = load ptr, ptr %7, align 8, !tbaa !4
  store ptr %12, ptr %10, align 8, !tbaa !4
  br label %13

13:                                               ; preds = %17, %4
  %14 = load ptr, ptr %10, align 8, !tbaa !4
  %15 = load i8, ptr %14, align 1, !tbaa !380
  %16 = icmp ne i8 %15, 0
  br i1 %16, label %17, label %25

17:                                               ; preds = %13
  %18 = load ptr, ptr %10, align 8, !tbaa !4
  %19 = call i64 @strlen(ptr noundef %18) #18
  %20 = add i64 %19, 1
  %21 = load ptr, ptr %10, align 8, !tbaa !4
  %22 = getelementptr inbounds nuw i8, ptr %21, i64 %20
  store ptr %22, ptr %10, align 8, !tbaa !4
  %23 = load i32, ptr %9, align 4, !tbaa !9
  %24 = add nsw i32 %23, 1
  store i32 %24, ptr %9, align 4, !tbaa !9
  br label %13, !llvm.loop !381

25:                                               ; preds = %13
  call void @llvm.lifetime.start.p0(i64 1, ptr %11) #17
  %26 = load ptr, ptr %5, align 8, !tbaa !4
  %27 = load ptr, ptr %6, align 8, !tbaa !258
  %28 = load ptr, ptr %7, align 8, !tbaa !4
  %29 = load i32, ptr %9, align 4, !tbaa !9
  %30 = load i32, ptr %8, align 4, !tbaa !9
  %31 = call noundef zeroext i1 @_ZN5ImGui5ComboEPKcPiPFS1_PviES3_ii(ptr noundef %26, ptr noundef %27, ptr noundef @_ZL24Items_SingleStringGetterPvi, ptr noundef %28, i32 noundef %29, i32 noundef %30)
  %32 = zext i1 %31 to i8
  store i8 %32, ptr %11, align 1, !tbaa !67
  %33 = load i8, ptr %11, align 1, !tbaa !67, !range !59, !noundef !60
  %34 = trunc i8 %33 to i1
  call void @llvm.lifetime.end.p0(i64 1, ptr %11) #17
  call void @llvm.lifetime.end.p0(i64 8, ptr %10) #17
  call void @llvm.lifetime.end.p0(i64 4, ptr %9) #17
  ret i1 %34
}