; Function Attrs: mustprogress uwtable
define dso_local noundef zeroext i1 @_ZN5ImGui5ComboEPKcPiS1_i(ptr noundef %0, ptr noundef captures(none) %1, ptr noundef %2, i32 noundef %3) local_unnamed_addr #5 {
  %5 = load i8, ptr %2, align 1, !tbaa !338
  %.not11 = icmp eq i8 %5, 0
  br i1 %.not11, label %._crit_edge, label %.lr.ph

.lr.ph:                                           ; preds = %4, %.lr.ph
  %.013 = phi i32 [ %9, %.lr.ph ], [ 0, %4 ]
  %.01012 = phi ptr [ %8, %.lr.ph ], [ %2, %4 ]
  %6 = tail call i64 @strlen(ptr noundef nonnull dereferenceable(1) %.01012) #42
  %7 = getelementptr i8, ptr %.01012, i64 %6
  %8 = getelementptr i8, ptr %7, i64 1
  %9 = add nuw nsw i32 %.013, 1
  %10 = load i8, ptr %8, align 1, !tbaa !338
  %.not = icmp eq i8 %10, 0
  br i1 %.not, label %._crit_edge, label %.lr.ph, !llvm.loop !339

._crit_edge:                                      ; preds = %.lr.ph, %4
  %.0.lcssa = phi i32 [ 0, %4 ], [ %9, %.lr.ph ]
  %11 = tail call noundef zeroext i1 @_ZN5ImGui5ComboEPKcPiPFS1_PviES3_ii(ptr noundef %0, ptr noundef %1, ptr noundef nonnull @_ZL24Items_SingleStringGetterPvi, ptr noundef nonnull %2, i32 noundef %.0.lcssa, i32 noundef %3)
  ret i1 %11
}